target datalayout = "e-m:e-p270:32:32-p271:32:32-p272:64:64-i64:64-i128:128-f80:128-n8:16:32:64-S128"
target triple = "x86_64-pc-linux-gnu"

%struct._zend_compiler_globals = type { %struct._zend_stack, ptr, ptr, i32, ptr, ptr, ptr, ptr, i8, i8, i8, i8, i8, %struct._zend_llist, ptr, i8, i8, i8, i8, ptr, i32, i32, %struct._zend_oparray_context, %struct._zend_file_context, ptr, %struct._zend_array, ptr, i64, i8, i8, i8, ptr, ptr, %struct._zend_stack, ptr, i32, ptr, ptr, i64, i64, ptr, ptr, ptr, ptr, i32, %struct._zend_stack }
%struct._zend_llist = type { ptr, ptr, i64, i64, ptr, i8, ptr }
%struct._zend_oparray_context = type { i32, i32, i32, i32, i32, i32, i32, ptr, ptr, i8 }
%struct._zend_file_context = type { %struct._zend_declarables, ptr, i8, i8, ptr, ptr, ptr, %struct._zend_array }
%struct._zend_declarables = type { i64 }
%struct._zend_array = type { %struct._zend_refcounted_h, %union.anon.5, i32, %union.anon.7, i32, i32, i32, i32, i64, ptr }
%struct._zend_refcounted_h = type { i32, %union.anon.4 }
%union.anon.4 = type { i32 }
%union.anon.5 = type { i32 }
%union.anon.7 = type { ptr }
%struct._zend_stack = type { i32, i32, i32, ptr }
%struct._zval_struct = type { %union._zend_value, %union.anon.0, %union.anon.3 }
%union._zend_value = type { i64 }
%union.anon.0 = type { i32 }
%union.anon.3 = type { i32 }
%struct._zend_arena = type { ptr, ptr, ptr }
%struct._zend_ast_zval = type { i16, i16, %struct._zval_struct }
%struct._zend_string = type { %struct._zend_refcounted_h, i64, i64, [1 x i8] }

@compiler_globals = external global %struct._zend_compiler_globals, align 8

; Function Attrs: nounwind uwtable
define internal ptr @zend_ast_alloc(i64 noundef %0) #0 {
  %2 = alloca ptr, align 8
  %3 = alloca i64, align 8
  %4 = alloca ptr, align 8
  %5 = alloca ptr, align 8
  %6 = alloca i64, align 8
  %7 = alloca ptr, align 8
  %8 = alloca i64, align 8
  store i64 %0, ptr %8, align 8
  %9 = load i64, ptr %8, align 8
  store ptr getelementptr inbounds (%struct._zend_compiler_globals, ptr @compiler_globals, i32 0, i32 32), ptr %2, align 8
  store i64 %9, ptr %3, align 8
  %10 = load ptr, ptr %2, align 8
  %11 = load ptr, ptr %10, align 8
  store ptr %11, ptr %4, align 8
  %12 = load ptr, ptr %4, align 8
  %13 = load ptr, ptr %12, align 8
  store ptr %13, ptr %5, align 8
  %14 = load i64, ptr %3, align 8
  %15 = add i64 %14, 8
  %16 = sub i64 %15, 1
  %17 = and i64 %16, -8
  store i64 %17, ptr %3, align 8
  %18 = load i64, ptr %3, align 8
  %19 = load ptr, ptr %4, align 8
  %20 = getelementptr inbounds %struct._zend_arena, ptr %19, i32 0, i32 1
  %21 = load ptr, ptr %20, align 8
  %22 = load ptr, ptr %5, align 8
  %23 = ptrtoint ptr %21 to i64
  %24 = ptrtoint ptr %22 to i64
  %25 = sub i64 %23, %24
  %26 = icmp ule i64 %18, %25
  br i1 %26, label %27, label %32

27:                                               ; preds = %1
  %28 = load ptr, ptr %5, align 8
  %29 = load i64, ptr %3, align 8
  %30 = getelementptr inbounds i8, ptr %28, i64 %29
  %31 = load ptr, ptr %4, align 8
  store ptr %30, ptr %31, align 8
  br label %301

32:                                               ; preds = %1
  %33 = load i64, ptr %3, align 8
  %34 = add i64 %33, 24
  %35 = load ptr, ptr %4, align 8
  %36 = getelementptr inbounds %struct._zend_arena, ptr %35, i32 0, i32 1
  %37 = load ptr, ptr %36, align 8
  %38 = load ptr, ptr %4, align 8
  %39 = ptrtoint ptr %37 to i64
  %40 = ptrtoint ptr %38 to i64
  %41 = sub i64 %39, %40
  %42 = icmp ugt i64 %34, %41
  br i1 %42, label %43, label %46

43:                                               ; preds = %32
  %44 = load i64, ptr %3, align 8
  %45 = add i64 %44, 24
  br label %54

46:                                               ; preds = %32
  %47 = load ptr, ptr %4, align 8
  %48 = getelementptr inbounds %struct._zend_arena, ptr %47, i32 0, i32 1
  %49 = load ptr, ptr %48, align 8
  %50 = load ptr, ptr %4, align 8
  %51 = ptrtoint ptr %49 to i64
  %52 = ptrtoint ptr %50 to i64
  %53 = sub i64 %51, %52
  br label %54

54:                                               ; preds = %46, %43
  %55 = phi i64 [ %45, %43 ], [ %53, %46 ]
  store i64 %55, ptr %6, align 8
  %56 = load i64, ptr %6, align 8
  %57 = call i1 @llvm.is.constant.i64(i64 %56)
  br i1 %57, label %58, label %279

58:                                               ; preds = %54
  %59 = load i64, ptr %6, align 8
  %60 = icmp ule i64 %59, 8
  br i1 %60, label %61, label %63

61:                                               ; preds = %58
  %62 = call noalias ptr @_emalloc_8() #10
  br label %277

63:                                               ; preds = %58
  %64 = load i64, ptr %6, align 8
  %65 = icmp ule i64 %64, 16
  br i1 %65, label %66, label %68

66:                                               ; preds = %63
  %67 = call noalias ptr @_emalloc_16() #10
  br label %275

68:                                               ; preds = %63
  %69 = load i64, ptr %6, align 8
  %70 = icmp ule i64 %69, 24
  br i1 %70, label %71, label %73

71:                                               ; preds = %68
  %72 = call noalias ptr @_emalloc_24() #10
  br label %273

73:                                               ; preds = %68
  %74 = load i64, ptr %6, align 8
  %75 = icmp ule i64 %74, 32
  br i1 %75, label %76, label %78

76:                                               ; preds = %73
  %77 = call noalias ptr @_emalloc_32() #10
  br label %271

78:                                               ; preds = %73
  %79 = load i64, ptr %6, align 8
  %80 = icmp ule i64 %79, 40
  br i1 %80, label %81, label %83

81:                                               ; preds = %78
  %82 = call noalias ptr @_emalloc_40() #10
  br label %269

83:                                               ; preds = %78
  %84 = load i64, ptr %6, align 8
  %85 = icmp ule i64 %84, 48
  br i1 %85, label %86, label %88

86:                                               ; preds = %83
  %87 = call noalias ptr @_emalloc_48() #10
  br label %267

88:                                               ; preds = %83
  %89 = load i64, ptr %6, align 8
  %90 = icmp ule i64 %89, 56
  br i1 %90, label %91, label %93

91:                                               ; preds = %88
  %92 = call noalias ptr @_emalloc_56() #10
  br label %265

93:                                               ; preds = %88
  %94 = load i64, ptr %6, align 8
  %95 = icmp ule i64 %94, 64
  br i1 %95, label %96, label %98

96:                                               ; preds = %93
  %97 = call noalias ptr @_emalloc_64() #10
  br label %263

98:                                               ; preds = %93
  %99 = load i64, ptr %6, align 8
  %100 = icmp ule i64 %99, 80
  br i1 %100, label %101, label %103

101:                                              ; preds = %98
  %102 = call noalias ptr @_emalloc_80() #10
  br label %261

103:                                              ; preds = %98
  %104 = load i64, ptr %6, align 8
  %105 = icmp ule i64 %104, 96
  br i1 %105, label %106, label %108

106:                                              ; preds = %103
  %107 = call noalias ptr @_emalloc_96() #10
  br label %259

108:                                              ; preds = %103
  %109 = load i64, ptr %6, align 8
  %110 = icmp ule i64 %109, 112
  br i1 %110, label %111, label %113

111:                                              ; preds = %108
  %112 = call noalias ptr @_emalloc_112() #10
  br label %257

113:                                              ; preds = %108
  %114 = load i64, ptr %6, align 8
  %115 = icmp ule i64 %114, 128
  br i1 %115, label %116, label %118

116:                                              ; preds = %113
  %117 = call noalias ptr @_emalloc_128() #10
  br label %255

118:                                              ; preds = %113
  %119 = load i64, ptr %6, align 8
  %120 = icmp ule i64 %119, 160
  br i1 %120, label %121, label %123

121:                                              ; preds = %118
  %122 = call noalias ptr @_emalloc_160() #10
  br label %253

123:                                              ; preds = %118
  %124 = load i64, ptr %6, align 8
  %125 = icmp ule i64 %124, 192
  br i1 %125, label %126, label %128

126:                                              ; preds = %123
  %127 = call noalias ptr @_emalloc_192() #10
  br label %251

128:                                              ; preds = %123
  %129 = load i64, ptr %6, align 8
  %130 = icmp ule i64 %129, 224
  br i1 %130, label %131, label %133

131:                                              ; preds = %128
  %132 = call noalias ptr @_emalloc_224() #10
  br label %249

133:                                              ; preds = %128
  %134 = load i64, ptr %6, align 8
  %135 = icmp ule i64 %134, 256
  br i1 %135, label %136, label %138

136:                                              ; preds = %133
  %137 = call noalias ptr @_emalloc_256() #10
  br label %247

138:                                              ; preds = %133
  %139 = load i64, ptr %6, align 8
  %140 = icmp ule i64 %139, 320
  br i1 %140, label %141, label %143

141:                                              ; preds = %138
  %142 = call noalias ptr @_emalloc_320() #10
  br label %245

143:                                              ; preds = %138
  %144 = load i64, ptr %6, align 8
  %145 = icmp ule i64 %144, 384
  br i1 %145, label %146, label %148

146:                                              ; preds = %143
  %147 = call noalias ptr @_emalloc_384() #10
  br label %243

148:                                              ; preds = %143
  %149 = load i64, ptr %6, align 8
  %150 = icmp ule i64 %149, 448
  br i1 %150, label %151, label %153

151:                                              ; preds = %148
  %152 = call noalias ptr @_emalloc_448() #10
  br label %241

153:                                              ; preds = %148
  %154 = load i64, ptr %6, align 8
  %155 = icmp ule i64 %154, 512
  br i1 %155, label %156, label %158

156:                                              ; preds = %153
  %157 = call noalias ptr @_emalloc_512() #10
  br label %239

158:                                              ; preds = %153
  %159 = load i64, ptr %6, align 8
  %160 = icmp ule i64 %159, 640
  br i1 %160, label %161, label %163

161:                                              ; preds = %158
  %162 = call noalias ptr @_emalloc_640() #10
  br label %237

163:                                              ; preds = %158
  %164 = load i64, ptr %6, align 8
  %165 = icmp ule i64 %164, 768
  br i1 %165, label %166, label %168

166:                                              ; preds = %163
  %167 = call noalias ptr @_emalloc_768() #10
  br label %235

168:                                              ; preds = %163
  %169 = load i64, ptr %6, align 8
  %170 = icmp ule i64 %169, 896
  br i1 %170, label %171, label %173

171:                                              ; preds = %168
  %172 = call noalias ptr @_emalloc_896() #10
  br label %233

173:                                              ; preds = %168
  %174 = load i64, ptr %6, align 8
  %175 = icmp ule i64 %174, 1024
  br i1 %175, label %176, label %178

176:                                              ; preds = %173
  %177 = call noalias ptr @_emalloc_1024() #10
  br label %231

178:                                              ; preds = %173
  %179 = load i64, ptr %6, align 8
  %180 = icmp ule i64 %179, 1280
  br i1 %180, label %181, label %183

181:                                              ; preds = %178
  %182 = call noalias ptr @_emalloc_1280() #10
  br label %229

183:                                              ; preds = %178
  %184 = load i64, ptr %6, align 8
  %185 = icmp ule i64 %184, 1536
  br i1 %185, label %186, label %188

186:                                              ; preds = %183
  %187 = call noalias ptr @_emalloc_1536() #10
  br label %227

188:                                              ; preds = %183
  %189 = load i64, ptr %6, align 8
  %190 = icmp ule i64 %189, 1792
  br i1 %190, label %191, label %193

191:                                              ; preds = %188
  %192 = call noalias ptr @_emalloc_1792() #10
  br label %225

193:                                              ; preds = %188
  %194 = load i64, ptr %6, align 8
  %195 = icmp ule i64 %194, 2048
  br i1 %195, label %196, label %198

196:                                              ; preds = %193
  %197 = call noalias ptr @_emalloc_2048() #10
  br label %223

198:                                              ; preds = %193
  %199 = load i64, ptr %6, align 8
  %200 = icmp ule i64 %199, 2560
  br i1 %200, label %201, label %203

201:                                              ; preds = %198
  %202 = call noalias ptr @_emalloc_2560() #10
  br label %221

203:                                              ; preds = %198
  %204 = load i64, ptr %6, align 8
  %205 = icmp ule i64 %204, 3072
  br i1 %205, label %206, label %208

206:                                              ; preds = %203
  %207 = call noalias ptr @_emalloc_3072() #10
  br label %219

208:                                              ; preds = %203
  %209 = load i64, ptr %6, align 8
  %210 = icmp ule i64 %209, 2093056
  br i1 %210, label %211, label %214

211:                                              ; preds = %208
  %212 = load i64, ptr %6, align 8
  %213 = call noalias ptr @_emalloc_large(i64 noundef %212) #11
  br label %217

214:                                              ; preds = %208
  %215 = load i64, ptr %6, align 8
  %216 = call noalias ptr @_emalloc_huge(i64 noundef %215) #11
  br label %217

217:                                              ; preds = %214, %211
  %218 = phi ptr [ %213, %211 ], [ %216, %214 ]
  br label %219

219:                                              ; preds = %217, %206
  %220 = phi ptr [ %207, %206 ], [ %218, %217 ]
  br label %221

221:                                              ; preds = %219, %201
  %222 = phi ptr [ %202, %201 ], [ %220, %219 ]
  br label %223

223:                                              ; preds = %221, %196
  %224 = phi ptr [ %197, %196 ], [ %222, %221 ]
  br label %225

225:                                              ; preds = %223, %191
  %226 = phi ptr [ %192, %191 ], [ %224, %223 ]
  br label %227

227:                                              ; preds = %225, %186
  %228 = phi ptr [ %187, %186 ], [ %226, %225 ]
  br label %229

229:                                              ; preds = %227, %181
  %230 = phi ptr [ %182, %181 ], [ %228, %227 ]
  br label %231

231:                                              ; preds = %229, %176
  %232 = phi ptr [ %177, %176 ], [ %230, %229 ]
  br label %233

233:                                              ; preds = %231, %171
  %234 = phi ptr [ %172, %171 ], [ %232, %231 ]
  br label %235

235:                                              ; preds = %233, %166
  %236 = phi ptr [ %167, %166 ], [ %234, %233 ]
  br label %237

237:                                              ; preds = %235, %161
  %238 = phi ptr [ %162, %161 ], [ %236, %235 ]
  br label %239

239:                                              ; preds = %237, %156
  %240 = phi ptr [ %157, %156 ], [ %238, %237 ]
  br label %241

241:                                              ; preds = %239, %151
  %242 = phi ptr [ %152, %151 ], [ %240, %239 ]
  br label %243

243:                                              ; preds = %241, %146
  %244 = phi ptr [ %147, %146 ], [ %242, %241 ]
  br label %245

245:                                              ; preds = %243, %141
  %246 = phi ptr [ %142, %141 ], [ %244, %243 ]
  br label %247

247:                                              ; preds = %245, %136
  %248 = phi ptr [ %137, %136 ], [ %246, %245 ]
  br label %249

249:                                              ; preds = %247, %131
  %250 = phi ptr [ %132, %131 ], [ %248, %247 ]
  br label %251

251:                                              ; preds = %249, %126
  %252 = phi ptr [ %127, %126 ], [ %250, %249 ]
  br label %253

253:                                              ; preds = %251, %121
  %254 = phi ptr [ %122, %121 ], [ %252, %251 ]
  br label %255

255:                                              ; preds = %253, %116
  %256 = phi ptr [ %117, %116 ], [ %254, %253 ]
  br label %257

257:                                              ; preds = %255, %111
  %258 = phi ptr [ %112, %111 ], [ %256, %255 ]
  br label %259

259:                                              ; preds = %257, %106
  %260 = phi ptr [ %107, %106 ], [ %258, %257 ]
  br label %261

261:                                              ; preds = %259, %101
  %262 = phi ptr [ %102, %101 ], [ %260, %259 ]
  br label %263

263:                                              ; preds = %261, %96
  %264 = phi ptr [ %97, %96 ], [ %262, %261 ]
  br label %265

265:                                              ; preds = %263, %91
  %266 = phi ptr [ %92, %91 ], [ %264, %263 ]
  br label %267

267:                                              ; preds = %265, %86
  %268 = phi ptr [ %87, %86 ], [ %266, %265 ]
  br label %269

269:                                              ; preds = %267, %81
  %270 = phi ptr [ %82, %81 ], [ %268, %267 ]
  br label %271

271:                                              ; preds = %269, %76
  %272 = phi ptr [ %77, %76 ], [ %270, %269 ]
  br label %273

273:                                              ; preds = %271, %71
  %274 = phi ptr [ %72, %71 ], [ %272, %271 ]
  br label %275

275:                                              ; preds = %273, %66
  %276 = phi ptr [ %67, %66 ], [ %274, %273 ]
  br label %277

277:                                              ; preds = %275, %61
  %278 = phi ptr [ %62, %61 ], [ %276, %275 ]
  br label %282

279:                                              ; preds = %54
  %280 = load i64, ptr %6, align 8
  %281 = call noalias ptr @_emalloc(i64 noundef %280) #11
  br label %282

282:                                              ; preds = %279, %277
  %283 = phi ptr [ %278, %277 ], [ %281, %279 ]
  store ptr %283, ptr %7, align 8
  %284 = load ptr, ptr %7, align 8
  %285 = getelementptr inbounds i8, ptr %284, i64 24
  store ptr %285, ptr %5, align 8
  %286 = load ptr, ptr %7, align 8
  %287 = getelementptr inbounds i8, ptr %286, i64 24
  %288 = load i64, ptr %3, align 8
  %289 = getelementptr inbounds i8, ptr %287, i64 %288
  %290 = load ptr, ptr %7, align 8
  store ptr %289, ptr %290, align 8
  %291 = load ptr, ptr %7, align 8
  %292 = load i64, ptr %6, align 8
  %293 = getelementptr inbounds i8, ptr %291, i64 %292
  %294 = load ptr, ptr %7, align 8
  %295 = getelementptr inbounds %struct._zend_arena, ptr %294, i32 0, i32 1
  store ptr %293, ptr %295, align 8
  %296 = load ptr, ptr %4, align 8
  %297 = load ptr, ptr %7, align 8
  %298 = getelementptr inbounds %struct._zend_arena, ptr %297, i32 0, i32 2
  store ptr %296, ptr %298, align 8
  %299 = load ptr, ptr %7, align 8
  %300 = load ptr, ptr %2, align 8
  store ptr %299, ptr %300, align 8
  br label %301

301:                                              ; preds = %282, %27
  %302 = load ptr, ptr %5, align 8
  ret ptr %302
}

; Function Attrs: nounwind uwtable
define ptr @zend_ast_create_zval_from_str(ptr noundef %0) #0 {
  %2 = alloca i32, align 4
  %3 = alloca ptr, align 8
  %4 = alloca i32, align 4
  %5 = alloca i32, align 4
  %6 = alloca ptr, align 8
  %7 = alloca ptr, align 8
  %8 = alloca ptr, align 8
  %9 = alloca ptr, align 8
  %10 = alloca i32, align 4
  %11 = alloca ptr, align 8
  %12 = alloca %struct._zval_struct, align 8
  %13 = alloca ptr, align 8
  %14 = alloca ptr, align 8
  store ptr %0, ptr %11, align 8
  br label %15

15:                                               ; preds = %1
  store ptr %12, ptr %13, align 8
  %16 = load ptr, ptr %11, align 8
  store ptr %16, ptr %14, align 8
  %17 = load ptr, ptr %14, align 8
  %18 = load ptr, ptr %13, align 8
  %19 = getelementptr inbounds %struct._zval_struct, ptr %18, i32 0, i32 0
  store ptr %17, ptr %19, align 8
  %20 = load ptr, ptr %14, align 8
  %21 = getelementptr inbounds %struct._zend_string, ptr %20, i32 0, i32 0
  %22 = getelementptr inbounds %struct._zend_refcounted_h, ptr %21, i32 0, i32 1
  %23 = load i32, ptr %22, align 4
  store i32 %23, ptr %2, align 4
  %24 = load i32, ptr %2, align 4
  %25 = and i32 %24, 1008
  %26 = and i32 %25, 64
  %27 = icmp ne i32 %26, 0
  %28 = select i1 %27, i32 6, i32 262
  %29 = load ptr, ptr %13, align 8
  %30 = getelementptr inbounds %struct._zval_struct, ptr %29, i32 0, i32 1
  store i32 %28, ptr %30, align 8
  br label %31

31:                                               ; preds = %15
  %32 = load i32, ptr getelementptr inbounds (%struct._zend_compiler_globals, ptr @compiler_globals, i32 0, i32 3), align 8
  store ptr %12, ptr %3, align 8
  store i32 0, ptr %4, align 4
  store i32 %32, ptr %5, align 4
  %33 = call ptr @zend_ast_alloc(i64 noundef 24)
  store ptr %33, ptr %6, align 8
  %34 = load ptr, ptr %6, align 8
  store i16 64, ptr %34, align 8
  %35 = load i32, ptr %4, align 4
  %36 = trunc i32 %35 to i16
  %37 = load ptr, ptr %6, align 8
  %38 = getelementptr inbounds %struct._zend_ast_zval, ptr %37, i32 0, i32 1
  store i16 %36, ptr %38, align 2
  %39 = load ptr, ptr %6, align 8
  %40 = getelementptr inbounds %struct._zend_ast_zval, ptr %39, i32 0, i32 2
  store ptr %40, ptr %7, align 8
  %41 = load ptr, ptr %3, align 8
  store ptr %41, ptr %8, align 8
  %42 = load ptr, ptr %8, align 8
  %43 = load ptr, ptr %42, align 8
  store ptr %43, ptr %9, align 8
  %44 = load ptr, ptr %8, align 8
  %45 = getelementptr inbounds %struct._zval_struct, ptr %44, i32 0, i32 1
  %46 = load i32, ptr %45, align 8
  store i32 %46, ptr %10, align 4
  %47 = load ptr, ptr %9, align 8
  %48 = load ptr, ptr %7, align 8
  store ptr %47, ptr %48, align 8
  %49 = load i32, ptr %10, align 4
  %50 = load ptr, ptr %7, align 8
  %51 = getelementptr inbounds %struct._zval_struct, ptr %50, i32 0, i32 1
  store i32 %49, ptr %51, align 8
  %52 = load i32, ptr %5, align 4
  %53 = load ptr, ptr %6, align 8
  %54 = getelementptr inbounds %struct._zend_ast_zval, ptr %53, i32 0, i32 2
  %55 = getelementptr inbounds %struct._zval_struct, ptr %54, i32 0, i32 2
  store i32 %52, ptr %55, align 4
  %56 = load ptr, ptr %6, align 8
  ret ptr %56
}