; Function Attrs: nounwind uwtable
define noundef ptr @zend_ast_create_zval_from_str(ptr noundef %0) local_unnamed_addr #0 {
  %2 = getelementptr inbounds i8, ptr %0, i64 4
  %3 = load i32, ptr %2, align 4
  %4 = load i32, ptr getelementptr inbounds (%struct._zend_compiler_globals, ptr @compiler_globals, i64 0, i32 3), align 8
  %5 = load ptr, ptr getelementptr inbounds (%struct._zend_compiler_globals, ptr @compiler_globals, i64 0, i32 32), align 8
  %6 = load ptr, ptr %5, align 8
  %7 = getelementptr inbounds i8, ptr %5, i64 8
  %8 = load ptr, ptr %7, align 8
  %9 = ptrtoint ptr %8 to i64
  %10 = ptrtoint ptr %6 to i64
  %11 = sub i64 %9, %10
  %.not.i = icmp ult i64 %11, 24
  br i1 %.not.i, label %14, label %12

12:                                               ; preds = %1
  %13 = getelementptr inbounds i8, ptr %6, i64 24
  store ptr %13, ptr %5, align 8
  br label %zend_ast_alloc.exit

14:                                               ; preds = %1
  %15 = ptrtoint ptr %5 to i64
  %16 = sub i64 %9, %15
  %..i = tail call i64 @llvm.umax.i64(i64 %16, i64 48)
  %17 = tail call noalias ptr @_emalloc(i64 noundef %..i) #13
  %18 = getelementptr inbounds i8, ptr %17, i64 24
  %19 = getelementptr inbounds i8, ptr %17, i64 48
  store ptr %19, ptr %17, align 8
  %20 = getelementptr inbounds i8, ptr %17, i64 %..i
  %21 = getelementptr inbounds i8, ptr %17, i64 8
  store ptr %20, ptr %21, align 8
  %22 = getelementptr inbounds i8, ptr %17, i64 16
  store ptr %5, ptr %22, align 8
  store ptr %17, ptr getelementptr inbounds (%struct._zend_compiler_globals, ptr @compiler_globals, i64 0, i32 32), align 8
  br label %zend_ast_alloc.exit

zend_ast_alloc.exit:                              ; preds = %12, %14
  %.0.i = phi ptr [ %6, %12 ], [ %18, %14 ]
  %23 = and i32 %3, 64
  %.not = icmp eq i32 %23, 0
  %24 = select i1 %.not, i32 262, i32 6
  store i16 64, ptr %.0.i, align 8
  %25 = getelementptr inbounds i8, ptr %.0.i, i64 2
  store i16 0, ptr %25, align 2
  %26 = getelementptr inbounds i8, ptr %.0.i, i64 8
  store ptr %0, ptr %26, align 8
  %27 = getelementptr inbounds i8, ptr %.0.i, i64 16
  store i32 %24, ptr %27, align 8
  %28 = getelementptr inbounds i8, ptr %.0.i, i64 20
  store i32 %4, ptr %28, align 4
  ret ptr %.0.i
}